(dp0
S'3'
p1
(dp2
S'labip'
p3
S'135.2.121.97'
p4
sS'ctid'
p5
g1
sS'callid'
p6
S'sip:+16310001@ln010.lucentlab.com'
p7
sS'duration'
p8
S'60'
p9
sS'starttime'
p10
S'2012-8-12'
p11
sS'mode'
p12
S'SIPURI'
p13
sS'status'
p14
S'OK'
p15
ss.