(dp0
S'1'
p1
(dp2
S'status'
p3
S'Started'
p4
sS'mode'
p5
S'SIPURI'
p6
sS'time'
p7
F1345686680.423
sS'duration'
p8
I1
sS'callid'
p9
S'sip:+16310001@ln010.lucentlab.com'
p10
sS'ctid'
p11
I1
sS'startime'
p12
S'2012-08-23 09:51:20'
p13
sS'labip'
p14
S'135.2.121.97'
p15
ss.